; ModuleID = '16/350.c'
source_filename = "16/350.c"
target datalayout = "e-m:e-p270:32:32-p271:32:32-p272:64:64-i64:64-f80:128-n8:16:32:64-S128"
target triple = "x86_64-pc-linux-gnu"

@.str = private unnamed_addr constant [3 x i8] c"%d\00", align 1
@.str.1 = private unnamed_addr constant [2 x i8] c"0\00", align 1
@.str.2 = private unnamed_addr constant [4 x i8] c"%d\0A\00", align 1

; Function Attrs: noinline nounwind uwtable
define dso_local i32 @main() #0 {
  %1 = alloca i32, align 4
  %2 = alloca i32, align 4
  %3 = alloca i32, align 4
  %4 = alloca i32, align 4
  %5 = alloca i32, align 4
  store i32 0, i32* %1, align 4
  %6 = call i32 (i8*, ...) @__isoc99_scanf(i8* getelementptr inbounds ([3 x i8], [3 x i8]* @.str, i64 0, i64 0), i32* %2)
  %7 = load i32, i32* %2, align 4
  store i32 %7, i32* %3, align 4
  store i32 0, i32* %5, align 4
  br label %8

8:                                                ; preds = %27, %0
  %9 = load i32, i32* %3, align 4
  %10 = icmp sgt i32 %9, 0
  br i1 %10, label %11, label %28

11:                                               ; preds = %8
  %12 = load i32, i32* %3, align 4
  %13 = srem i32 %12, 10
  store i32 %13, i32* %4, align 4
  %14 = load i32, i32* %4, align 4
  %15 = icmp eq i32 %14, 0
  br i1 %15, label %16, label %20

16:                                               ; preds = %11
  %17 = call i32 (i8*, ...) @printf(i8* getelementptr inbounds ([2 x i8], [2 x i8]* @.str.1, i64 0, i64 0))
  %18 = load i32, i32* %3, align 4
  %19 = sdiv i32 %18, 10
  store i32 %19, i32* %3, align 4
  br label %27

20:                                               ; preds = %11
  %21 = load i32, i32* %3, align 4
  %22 = sdiv i32 %21, 10
  store i32 %22, i32* %3, align 4
  %23 = load i32, i32* %5, align 4
  %24 = mul nsw i32 %23, 10
  %25 = load i32, i32* %4, align 4
  %26 = add nsw i32 %24, %25
  store i32 %26, i32* %5, align 4
  br label %27

27:                                               ; preds = %20, %16
  br label %8

28:                                               ; preds = %8
  %29 = load i32, i32* %5, align 4
  %30 = call i32 (i8*, ...) @printf(i8* getelementptr inbounds ([4 x i8], [4 x i8]* @.str.2, i64 0, i64 0), i32 %29)
  ret i32 0
}

declare dso_local i32 @__isoc99_scanf(i8*, ...) #1

declare dso_local i32 @printf(i8*, ...) #1


!llvm.module.flags = !{!0}
!llvm.ident = !{!1}

!0 = !{i32 1, !"wchar_size", i32 4}
!1 = !{!"clang version 10.0.0-4ubuntu1 "}
